; Function Attrs: mustprogress nounwind uwtable
define range(i32 0, -65534) i32 @_ZNK8WasmEdge4Host4WASI7Environ9procRaiseE15__wasi_signal_t(ptr noundef nonnull readnone align 8 captures(none) dereferenceable(344) %0, i8 noundef zeroext %1) local_unnamed_addr #0 align 2 personality ptr @__gxx_personality_v0 {
  %3 = icmp ult i8 %1, 31
  br i1 %3, label %switch.lookup, label %11

switch.lookup:                                    ; preds = %2
  %4 = zext nneg i8 %1 to i64
  %switch.gep = getelementptr inbounds nuw [31 x i32], ptr @switch.table._ZNK8WasmEdge4Host4WASI7Environ9procRaiseE15__wasi_signal_t, i64 0, i64 %4
  %switch.load = load i32, ptr %switch.gep, align 4
  %5 = tail call i32 @raise(i32 noundef %switch.load) #3
  %.not = icmp eq i32 %5, 0
  br i1 %.not, label %11, label %6

6:                                                ; preds = %switch.lookup
  %7 = tail call ptr @__errno_location() #4
  %8 = load i32, ptr %7, align 4
  %9 = tail call noundef zeroext i16 @_ZN8WasmEdge4Host4WASI6detail9fromErrNoEi(i32 noundef %8) #3
  %.sroa.55.sroa.5.0.extract.shift7 = and i16 %9, -256
  %10 = and i16 %9, 255
  br label %11

11:                                               ; preds = %2, %switch.lookup, %6
  %.sroa.04.0 = phi i32 [ 0, %6 ], [ 0, %2 ], [ 1, %switch.lookup ]
  %.sroa.55.sroa.0.0 = phi i16 [ %10, %6 ], [ 58, %2 ], [ 0, %switch.lookup ]
  %.sroa.55.sroa.5.0 = phi i16 [ %.sroa.55.sroa.5.0.extract.shift7, %6 ], [ 0, %2 ], [ 0, %switch.lookup ]
  %.sroa.55.sroa.0.0.insert.insert = or disjoint i16 %.sroa.55.sroa.5.0, %.sroa.55.sroa.0.0
  %.sroa.55.0.insert.ext = zext i16 %.sroa.55.sroa.0.0.insert.insert to i32
  %.sroa.55.0.insert.shift = shl nuw i32 %.sroa.55.0.insert.ext, 16
  %.sroa.04.0.insert.insert = or disjoint i32 %.sroa.55.0.insert.shift, %.sroa.04.0
  ret i32 %.sroa.04.0.insert.insert
}